target datalayout = "e-m:e-p270:32:32-p271:32:32-p272:64:64-i64:64-i128:128-f80:128-n8:16:32:64-S128"
target triple = "x86_64-pc-linux-gnu"

%struct._GLFWlibrary = type { i32, %struct.GLFWallocator, %struct._GLFWplatform, %struct.anon, ptr, ptr, ptr, ptr, i32, i32, [16 x %struct._GLFWjoystick], ptr, i32, %struct._GLFWtls, %struct._GLFWtls, %struct._GLFWmutex, %struct.anon.8, %struct.anon.9, %struct.anon.10, %struct.anon.11, %struct.anon.12, %struct._GLFWlibraryWayland, %struct._GLFWlibraryX11, %struct._GLFWlibraryNull, %struct._GLFWlibraryGLX, %struct._GLFWlibraryLinux }
%struct.GLFWallocator = type { ptr, ptr, ptr, ptr }
%struct._GLFWplatform = type { i32, ptr, ptr, ptr, ptr, ptr, ptr, ptr, ptr, ptr, ptr, ptr, ptr, ptr, ptr, ptr, ptr, ptr, ptr, ptr, ptr, ptr, ptr, ptr, ptr, ptr, ptr, ptr, ptr, ptr, ptr, ptr, ptr, ptr, ptr, ptr, ptr, ptr, ptr, ptr, ptr, ptr, ptr, ptr, ptr, ptr, ptr, ptr, ptr, ptr, ptr, ptr, ptr, ptr, ptr, ptr, ptr, ptr, ptr, ptr, ptr, ptr, ptr, ptr, ptr, ptr, ptr, ptr, ptr, ptr, ptr, ptr }
%struct.anon = type { %struct._GLFWinitconfig, %struct._GLFWfbconfig, %struct._GLFWwndconfig, %struct._GLFWctxconfig, i32 }
%struct._GLFWinitconfig = type { i32, i32, i32, ptr, %struct.anon.0, %struct.anon.1, %struct.anon.2 }
%struct.anon.0 = type { i32, i32 }
%struct.anon.1 = type { i32 }
%struct.anon.2 = type { i32 }
%struct._GLFWfbconfig = type { i32, i32, i32, i32, i32, i32, i32, i32, i32, i32, i32, i32, i32, i32, i32, i32, i64 }
%struct._GLFWwndconfig = type { i32, i32, i32, i32, ptr, i32, i32, i32, i32, i32, i32, i32, i32, i32, i32, i32, i32, %struct.anon.3, %struct.anon.4, %struct.anon.5, %struct.anon.6 }
%struct.anon.3 = type { [256 x i8] }
%struct.anon.4 = type { [256 x i8], [256 x i8] }
%struct.anon.5 = type { i32, i32 }
%struct.anon.6 = type { [256 x i8] }
%struct._GLFWctxconfig = type { i32, i32, i32, i32, i32, i32, i32, i32, i32, i32, ptr, %struct.anon.7 }
%struct.anon.7 = type { i32 }
%struct._GLFWjoystick = type { i32, i32, ptr, i32, ptr, i32, ptr, i32, [128 x i8], ptr, [33 x i8], ptr, %struct._GLFWjoystickLinux }
%struct._GLFWjoystickLinux = type { i32, [4096 x i8], [512 x i32], [64 x i32], [64 x %struct.input_absinfo], [4 x [2 x i32]] }
%struct.input_absinfo = type { i32, i32, i32, i32, i32, i32 }
%struct._GLFWtls = type { %struct._GLFWtlsPOSIX }
%struct._GLFWtlsPOSIX = type { i32, i32 }
%struct._GLFWmutex = type { %struct._GLFWmutexPOSIX }
%struct._GLFWmutexPOSIX = type { i32, %union.pthread_mutex_t }
%union.pthread_mutex_t = type { %struct.__pthread_mutex_s }
%struct.__pthread_mutex_s = type { i32, i32, i32, i32, i32, i16, i16, %struct.__pthread_internal_list }
%struct.__pthread_internal_list = type { ptr, ptr }
%struct.anon.8 = type { i64, %struct._GLFWtimerPOSIX }
%struct._GLFWtimerPOSIX = type { i32, i64 }
%struct.anon.9 = type { i32, ptr, i32, i32, i32, i32, i32, i32, i32, i32, i32, i32, i32, i32, i32, i32, i32, i32, i32, i32, ptr, ptr, ptr, ptr, ptr, ptr, ptr, ptr, ptr, ptr, ptr, ptr, ptr, ptr, ptr, ptr, ptr, ptr, ptr }
%struct.anon.10 = type { ptr, ptr, ptr, ptr, ptr, ptr, ptr, ptr }
%struct.anon.11 = type { i32, ptr, [2 x ptr], ptr, i32, i32, i32, i32, i32, i32, i32 }
%struct.anon.12 = type { ptr, ptr }
%struct._GLFWlibraryWayland = type { ptr, ptr, ptr, ptr, ptr, ptr, ptr, ptr, ptr, ptr, ptr, ptr, ptr, ptr, ptr, ptr, ptr, ptr, ptr, i32, ptr, ptr, ptr, ptr, i32, ptr, ptr, ptr, ptr, ptr, i32, i32, i32, i32, i32, i32, i32, ptr, [256 x i16], [349 x i16], [349 x [5 x i8]], %struct.anon.13, ptr, ptr, %struct.anon.14, %struct.anon.15, %struct.anon.16, %struct.anon.17 }
%struct.anon.13 = type { ptr, ptr, ptr, ptr, ptr, i32, i32, i32, i32, i32, i32, i32, ptr, ptr, ptr, ptr, ptr, ptr, ptr, ptr, ptr, ptr, ptr, ptr, ptr, ptr, ptr, ptr, ptr, ptr, ptr, ptr }
%struct.anon.14 = type { ptr, ptr, ptr, ptr, ptr, ptr, ptr, ptr, ptr, ptr, ptr, ptr, ptr, ptr, ptr, ptr, ptr, ptr, ptr, ptr }
%struct.anon.15 = type { ptr, ptr, ptr, ptr, ptr }
%struct.anon.16 = type { ptr, ptr, ptr, ptr }
%struct.anon.17 = type { ptr, ptr, ptr, i32, ptr, ptr, ptr, ptr, ptr, ptr, ptr, ptr, ptr, ptr, ptr, ptr, ptr, ptr, ptr, ptr, ptr, ptr, ptr, ptr, ptr, ptr, ptr, ptr, ptr }
%struct._GLFWlibraryX11 = type { ptr, i32, i64, float, float, i64, i64, i32, ptr, ptr, i32, ptr, ptr, [349 x [5 x i8]], [256 x i16], [349 x i16], double, double, ptr, [2 x i32], i64, i64, i64, i64, i64, i64, i64, i64, i64, i64, i64, i64, i64, i64, i64, i64, i64, i64, i64, i64, i64, i64, i64, i64, i64, i64, i64, i64, i64, i64, i64, i64, i64, i64, i64, i64, i64, i64, i64, i64, i64, i64, i64, i64, i64, i64, i64, i64, i64, i64, %struct.anon.18, %struct.anon.19, %struct.anon.20, %struct.anon.21, %struct.anon.22, %struct.anon.23, %struct.anon.24, %struct.anon.25, %struct.anon.26, %struct.anon.27, %struct.anon.28, %struct.anon.29, %struct.anon.30 }
%struct.anon.18 = type { ptr, i32, ptr, ptr, ptr, ptr, ptr, ptr, ptr, ptr, ptr, ptr, ptr, ptr, ptr, ptr, ptr, ptr, ptr, ptr, ptr, ptr, ptr, ptr, ptr, ptr, ptr, ptr, ptr, ptr, ptr, ptr, ptr, ptr, ptr, ptr, ptr, ptr, ptr, ptr, ptr, ptr, ptr, ptr, ptr, ptr, ptr, ptr, ptr, ptr, ptr, ptr, ptr, ptr, ptr, ptr, ptr, ptr, ptr, ptr, ptr, ptr, ptr, ptr, ptr, ptr, ptr, ptr, ptr, ptr, ptr, ptr, ptr, ptr, ptr, ptr, ptr, ptr, ptr, ptr, ptr, ptr, ptr, ptr, ptr, ptr, ptr, ptr }
%struct.anon.19 = type { ptr, ptr, ptr, ptr }
%struct.anon.20 = type { i32, ptr, i32, i32, i32, i32, i32, i32, ptr, ptr, ptr, ptr, ptr, ptr, ptr, ptr, ptr, ptr, ptr, ptr, ptr, ptr, ptr, ptr, ptr }
%struct.anon.21 = type { i32, i32, i32, i32, i32, i32, i32, i32, ptr, ptr, ptr, ptr, ptr, ptr, ptr, ptr, ptr }
%struct.anon.22 = type { i32, i32, i32, i32, i32 }
%struct.anon.23 = type { i32, i64, i64 }
%struct.anon.24 = type { ptr, ptr, ptr, ptr, ptr, ptr, ptr }
%struct.anon.25 = type { i32, ptr, i32, i32, ptr, ptr, ptr }
%struct.anon.26 = type { ptr, ptr }
%struct.anon.27 = type { i32, ptr, i32, i32, ptr, ptr, ptr, ptr }
%struct.anon.28 = type { i32, ptr, i32, i32, i32, i32, i32, ptr, ptr }
%struct.anon.29 = type { i32, ptr, i32, i32, i32, i32, ptr, ptr, ptr }
%struct.anon.30 = type { i32, ptr, i32, i32, i32, i32, ptr, ptr, ptr, ptr }
%struct._GLFWlibraryNull = type { i32, i32, ptr, ptr, [121 x i16], [349 x i8] }
%struct._GLFWlibraryGLX = type { i32, i32, i32, i32, ptr, ptr, ptr, ptr, ptr, ptr, ptr, ptr, ptr, ptr, ptr, ptr, ptr, ptr, ptr, ptr, ptr, ptr, ptr, ptr, i32, i32, i32, i32, i32, i32, i32, i32, i32, i32, i32, i32 }
%struct._GLFWlibraryLinux = type { i32, i32, %struct.re_pattern_buffer, i32, i32 }
%struct.re_pattern_buffer = type { ptr, i64, i64, i64, ptr, ptr, i64, i8 }

@_glfw = external global %struct._GLFWlibrary, align 8
@.str.76 = private unnamed_addr constant [50 x i8] c"Wayland: Failed to create pipe for data offer: %s\00", align 1
@.str.77 = private unnamed_addr constant [49 x i8] c"Wayland: Failed to read from data offer pipe: %s\00", align 1

; Function Attrs: inlinehint nounwind uwtable
define internal void @wl_data_offer_receive(ptr noundef %0, ptr noundef %1, i32 noundef %2) #1 {
  %4 = alloca ptr, align 8
  %5 = alloca ptr, align 8
  %6 = alloca i32, align 4
  store ptr %0, ptr %4, align 8, !tbaa !187
  store ptr %1, ptr %5, align 8, !tbaa !185
  store i32 %2, ptr %6, align 4, !tbaa !129
  %7 = load ptr, ptr getelementptr inbounds nuw (%struct.anon.14, ptr getelementptr inbounds nuw (%struct._GLFWlibraryWayland, ptr getelementptr inbounds nuw (%struct._GLFWlibrary, ptr @_glfw, i32 0, i32 21), i32 0, i32 44), i32 0, i32 19), align 8, !tbaa !142
  %8 = load ptr, ptr %4, align 8, !tbaa !187
  %9 = load ptr, ptr getelementptr inbounds nuw (%struct.anon.14, ptr getelementptr inbounds nuw (%struct._GLFWlibraryWayland, ptr getelementptr inbounds nuw (%struct._GLFWlibrary, ptr @_glfw, i32 0, i32 21), i32 0, i32 44), i32 0, i32 18), align 8, !tbaa !140
  %10 = load ptr, ptr %4, align 8, !tbaa !187
  %11 = call i32 %9(ptr noundef %10)
  %12 = load ptr, ptr %5, align 8, !tbaa !185
  %13 = load i32, ptr %6, align 4, !tbaa !129
  %14 = call ptr (ptr, i32, ptr, i32, i32, ...) %7(ptr noundef %8, i32 noundef 1, ptr noundef null, i32 noundef %11, i32 noundef 0, ptr noundef %12, i32 noundef %13)
  ret void
}

; Function Attrs: nounwind uwtable
define internal ptr @readDataOfferAsString(ptr noundef %0, ptr noundef %1) #0 {
  %3 = alloca ptr, align 8
  %4 = alloca ptr, align 8
  %5 = alloca ptr, align 8
  %6 = alloca [2 x i32], align 4
  %7 = alloca i32, align 4
  %8 = alloca ptr, align 8
  %9 = alloca i64, align 8
  %10 = alloca i64, align 8
  %11 = alloca i64, align 8
  %12 = alloca i64, align 8
  %13 = alloca ptr, align 8
  %14 = alloca i64, align 8
  store ptr %0, ptr %4, align 8, !tbaa !187
  store ptr %1, ptr %5, align 8, !tbaa !185
  call void @llvm.lifetime.start.p0(i64 8, ptr %6) #9
  %15 = getelementptr inbounds [2 x i32], ptr %6, i64 0, i64 0
  %16 = call i32 @pipe2(ptr noundef %15, i32 noundef 524288) #9
  %17 = icmp eq i32 %16, -1
  br i1 %17, label %18, label %22

18:                                               ; preds = %2
  %19 = call ptr @__errno_location() #10
  %20 = load i32, ptr %19, align 4, !tbaa !129
  %21 = call ptr @strerror(i32 noundef %20) #9
  call void (i32, ptr, ...) @_glfwInputError(i32 noundef 65544, ptr noundef @.str.76, ptr noundef %21)
  store ptr null, ptr %3, align 8
  store i32 1, ptr %7, align 4
  br label %97

22:                                               ; preds = %2
  %23 = load ptr, ptr %4, align 8, !tbaa !187
  %24 = load ptr, ptr %5, align 8, !tbaa !185
  %25 = getelementptr inbounds [2 x i32], ptr %6, i64 0, i64 1
  %26 = load i32, ptr %25, align 4, !tbaa !129
  call void @wl_data_offer_receive(ptr noundef %23, ptr noundef %24, i32 noundef %26)
  %27 = call i32 @flushDisplay()
  %28 = getelementptr inbounds [2 x i32], ptr %6, i64 0, i64 1
  %29 = load i32, ptr %28, align 4, !tbaa !129
  %30 = call i32 @close(i32 noundef %29)
  call void @llvm.lifetime.start.p0(i64 8, ptr %8) #9
  store ptr null, ptr %8, align 8, !tbaa !185
  call void @llvm.lifetime.start.p0(i64 8, ptr %9) #9
  store i64 0, ptr %9, align 8, !tbaa !130
  call void @llvm.lifetime.start.p0(i64 8, ptr %10) #9
  store i64 0, ptr %10, align 8, !tbaa !130
  br label %31

31:                                               ; preds = %87, %85, %22
  call void @llvm.lifetime.start.p0(i64 8, ptr %11) #9
  store i64 4096, ptr %11, align 8, !tbaa !130
  call void @llvm.lifetime.start.p0(i64 8, ptr %12) #9
  %32 = load i64, ptr %10, align 8, !tbaa !130
  %33 = add i64 %32, 4096
  %34 = add i64 %33, 1
  store i64 %34, ptr %12, align 8, !tbaa !130
  %35 = load i64, ptr %12, align 8, !tbaa !130
  %36 = load i64, ptr %9, align 8, !tbaa !130
  %37 = icmp ugt i64 %35, %36
  br i1 %37, label %38, label %54

38:                                               ; preds = %31
  call void @llvm.lifetime.start.p0(i64 8, ptr %13) #9
  %39 = load ptr, ptr %8, align 8, !tbaa !185
  %40 = load i64, ptr %12, align 8, !tbaa !130
  %41 = call ptr @_glfw_realloc(ptr noundef %39, i64 noundef %40)
  store ptr %41, ptr %13, align 8, !tbaa !185
  %42 = load ptr, ptr %13, align 8, !tbaa !185
  %43 = icmp ne ptr %42, null
  br i1 %43, label %48, label %44

44:                                               ; preds = %38
  call void (i32, ptr, ...) @_glfwInputError(i32 noundef 65541, ptr noundef null)
  %45 = getelementptr inbounds [2 x i32], ptr %6, i64 0, i64 0
  %46 = load i32, ptr %45, align 4, !tbaa !129
  %47 = call i32 @close(i32 noundef %46)
  store ptr null, ptr %3, align 8
  store i32 1, ptr %7, align 4
  br label %51

48:                                               ; preds = %38
  %49 = load ptr, ptr %13, align 8, !tbaa !185
  store ptr %49, ptr %8, align 8, !tbaa !185
  %50 = load i64, ptr %12, align 8, !tbaa !130
  store i64 %50, ptr %9, align 8, !tbaa !130
  store i32 0, ptr %7, align 4
  br label %51

51:                                               ; preds = %48, %44
  call void @llvm.lifetime.end.p0(i64 8, ptr %13) #9
  %52 = load i32, ptr %7, align 4
  switch i32 %52, label %85 [
    i32 0, label %53
  ]

53:                                               ; preds = %51
  br label %54

54:                                               ; preds = %53, %31
  call void @llvm.lifetime.start.p0(i64 8, ptr %14) #9
  %55 = getelementptr inbounds [2 x i32], ptr %6, i64 0, i64 0
  %56 = load i32, ptr %55, align 4, !tbaa !129
  %57 = load ptr, ptr %8, align 8, !tbaa !185
  %58 = load i64, ptr %10, align 8, !tbaa !130
  %59 = getelementptr inbounds nuw i8, ptr %57, i64 %58
  %60 = call i64 @read(i32 noundef %56, ptr noundef %59, i64 noundef 4096)
  store i64 %60, ptr %14, align 8, !tbaa !130
  %61 = load i64, ptr %14, align 8, !tbaa !130
  %62 = icmp eq i64 %61, 0
  br i1 %62, label %63, label %64

63:                                               ; preds = %54
  store i32 2, ptr %7, align 4
  br label %84

64:                                               ; preds = %54
  %65 = load i64, ptr %14, align 8, !tbaa !130
  %66 = icmp eq i64 %65, -1
  br i1 %66, label %67, label %79

67:                                               ; preds = %64
  %68 = call ptr @__errno_location() #10
  %69 = load i32, ptr %68, align 4, !tbaa !129
  %70 = icmp eq i32 %69, 4
  br i1 %70, label %71, label %72

71:                                               ; preds = %67
  store i32 3, ptr %7, align 4
  br label %84

72:                                               ; preds = %67
  %73 = call ptr @__errno_location() #10
  %74 = load i32, ptr %73, align 4, !tbaa !129
  %75 = call ptr @strerror(i32 noundef %74) #9
  call void (i32, ptr, ...) @_glfwInputError(i32 noundef 65544, ptr noundef @.str.77, ptr noundef %75)
  %76 = getelementptr inbounds [2 x i32], ptr %6, i64 0, i64 0
  %77 = load i32, ptr %76, align 4, !tbaa !129
  %78 = call i32 @close(i32 noundef %77)
  store ptr null, ptr %3, align 8
  store i32 1, ptr %7, align 4
  br label %84

79:                                               ; preds = %64
  br label %80

80:                                               ; preds = %79
  %81 = load i64, ptr %14, align 8, !tbaa !130
  %82 = load i64, ptr %10, align 8, !tbaa !130
  %83 = add i64 %82, %81
  store i64 %83, ptr %10, align 8, !tbaa !130
  store i32 0, ptr %7, align 4
  br label %84

84:                                               ; preds = %80, %72, %71, %63
  call void @llvm.lifetime.end.p0(i64 8, ptr %14) #9
  br label %85

85:                                               ; preds = %84, %51
  call void @llvm.lifetime.end.p0(i64 8, ptr %12) #9
  call void @llvm.lifetime.end.p0(i64 8, ptr %11) #9
  %86 = load i32, ptr %7, align 4
  switch i32 %86, label %96 [
    i32 0, label %87
    i32 2, label %88
    i32 3, label %31
  ]

87:                                               ; preds = %85
  br label %31

88:                                               ; preds = %85
  %89 = getelementptr inbounds [2 x i32], ptr %6, i64 0, i64 0
  %90 = load i32, ptr %89, align 4, !tbaa !129
  %91 = call i32 @close(i32 noundef %90)
  %92 = load ptr, ptr %8, align 8, !tbaa !185
  %93 = load i64, ptr %10, align 8, !tbaa !130
  %94 = getelementptr inbounds nuw i8, ptr %92, i64 %93
  store i8 0, ptr %94, align 1, !tbaa !350
  %95 = load ptr, ptr %8, align 8, !tbaa !185
  store ptr %95, ptr %3, align 8
  store i32 1, ptr %7, align 4
  br label %96

96:                                               ; preds = %88, %85
  call void @llvm.lifetime.end.p0(i64 8, ptr %10) #9
  call void @llvm.lifetime.end.p0(i64 8, ptr %9) #9
  call void @llvm.lifetime.end.p0(i64 8, ptr %8) #9
  br label %97

97:                                               ; preds = %96, %18
  call void @llvm.lifetime.end.p0(i64 8, ptr %6) #9
  %98 = load ptr, ptr %3, align 8
  ret ptr %98
}