; Function Attrs: nounwind uwtable
define internal fastcc ptr @readDataOfferAsString(ptr noundef %0, ptr noundef %1) unnamed_addr #0 {
  %3 = alloca [2 x i32], align 4
  call void @llvm.lifetime.start.p0(i64 8, ptr nonnull %3) #20
  %4 = call i32 @pipe2(ptr noundef nonnull %3, i32 noundef 524288) #20
  %5 = icmp eq i32 %4, -1
  br i1 %5, label %6, label %10

6:                                                ; preds = %2
  %7 = tail call ptr @__errno_location() #21
  %8 = load i32, ptr %7, align 4, !tbaa !147
  %9 = call ptr @strerror(i32 noundef %8) #20
  call void (i32, ptr, ...) @_glfwInputError(i32 noundef 65544, ptr noundef nonnull @.str.76, ptr noundef %9) #20
  br label %.thread41

10:                                               ; preds = %2
  %11 = getelementptr inbounds nuw i8, ptr %3, i64 4
  %12 = load i32, ptr %11, align 4, !tbaa !147
  %13 = load ptr, ptr getelementptr inbounds nuw (i8, ptr @_glfw, i64 137528), align 8, !tbaa !136
  %14 = load ptr, ptr getelementptr inbounds nuw (i8, ptr @_glfw, i64 137520), align 8, !tbaa !93
  %15 = call i32 %14(ptr noundef %0) #20
  %16 = call ptr (ptr, i32, ptr, i32, i32, ...) %13(ptr noundef %0, i32 noundef 1, ptr noundef null, i32 noundef %15, i32 noundef 0, ptr noundef %1, i32 noundef %12) #20
  %17 = call fastcc i32 @flushDisplay()
  %18 = load i32, ptr %11, align 4, !tbaa !147
  %19 = call i32 @close(i32 noundef %18) #20
  br label %.outer

.outer:                                           ; preds = %39, %10
  %.032.ph = phi i64 [ %40, %39 ], [ 0, %10 ]
  %.028.ph = phi i64 [ %.129, %39 ], [ 0, %10 ]
  %.024.ph = phi ptr [ %.125, %39 ], [ null, %10 ]
  %20 = add i64 %.032.ph, 4097
  br label %21

21:                                               ; preds = %.outer, %31
  %.028 = phi i64 [ %.129, %31 ], [ %.028.ph, %.outer ]
  %.024 = phi ptr [ %.125, %31 ], [ %.024.ph, %.outer ]
  %22 = icmp ugt i64 %20, %.028
  br i1 %22, label %23, label %27

23:                                               ; preds = %21
  %24 = call ptr @_glfw_realloc(ptr noundef %.024, i64 noundef %20) #20
  %.not.not = icmp eq ptr %24, null
  br i1 %.not.not, label %.thread, label %27

.thread:                                          ; preds = %23
  call void (i32, ptr, ...) @_glfwInputError(i32 noundef 65541, ptr noundef null) #20
  %25 = load i32, ptr %3, align 4, !tbaa !147
  %26 = call i32 @close(i32 noundef %25) #20
  br label %.thread41

27:                                               ; preds = %23, %21
  %.129 = phi i64 [ %.028, %21 ], [ %20, %23 ]
  %.125 = phi ptr [ %.024, %21 ], [ %24, %23 ]
  %28 = load i32, ptr %3, align 4, !tbaa !147
  %29 = getelementptr inbounds nuw i8, ptr %.125, i64 %.032.ph
  %30 = call i64 @read(i32 noundef %28, ptr noundef %29, i64 noundef 4096) #20
  switch i64 %30, label %39 [
    i64 0, label %41
    i64 -1, label %31
  ]

31:                                               ; preds = %27
  %32 = tail call ptr @__errno_location() #21
  %33 = load i32, ptr %32, align 4, !tbaa !147
  %34 = icmp eq i32 %33, 4
  br i1 %34, label %21, label %35

35:                                               ; preds = %31
  %36 = call ptr @strerror(i32 noundef %33) #20
  call void (i32, ptr, ...) @_glfwInputError(i32 noundef 65544, ptr noundef nonnull @.str.77, ptr noundef %36) #20
  %37 = load i32, ptr %3, align 4, !tbaa !147
  %38 = call i32 @close(i32 noundef %37) #20
  br label %.thread41

39:                                               ; preds = %27
  %40 = add i64 %30, %.032.ph
  br label %.outer

41:                                               ; preds = %27
  %42 = load i32, ptr %3, align 4, !tbaa !147
  %43 = call i32 @close(i32 noundef %42) #20
  store i8 0, ptr %29, align 1, !tbaa !314
  br label %.thread41

.thread41:                                        ; preds = %.thread, %35, %41, %6
  %.0 = phi ptr [ null, %6 ], [ %.125, %41 ], [ null, %35 ], [ null, %.thread ]
  call void @llvm.lifetime.end.p0(i64 8, ptr nonnull %3) #20
  ret ptr %.0
}